; Function Attrs: nounwind uwtable
define internal void @_init_image(ptr noundef %0, ptr nocapture readnone %1) #0 {
  %3 = getelementptr inbounds nuw i8, ptr %0, i64 464
  tail call void @lv_matrix_identity(ptr noundef nonnull %3) #9
  %4 = getelementptr inbounds nuw i8, ptr %0, i64 592
  tail call void @lv_draw_image_dsc_init(ptr noundef nonnull %4) #9
  %5 = getelementptr inbounds nuw i8, ptr %0, i64 736
  store i32 10, ptr %5, align 8, !tbaa !225
  ret void
}